target datalayout = "e-m:e-p270:32:32-p271:32:32-p272:64:64-i64:64-i128:128-f80:128-n8:16:32:64-S128"
target triple = "x86_64-pc-linux-gnu"

%struct.slab_automove_reg_t = type { ptr, ptr, ptr }
%struct.settings = type { i64, i32, i32, i32, ptr, i32, i32, i32, ptr, ptr, i32, double, i32, i32, i32, i8, i32, i32, i8, i32, i32, i32, i32, i32, i32, i8, i8, i8, i8, i8, i8, i8, i32, i32, double, double, i32, i32, i8, i32, i8, i8, ptr, i32, i32, i32, i32, double, double, i32, i8, i32, i32, i32, i32, i32, i8, i8, i8, ptr, i32, i32, i32, i32, i32, i32, i32, i32, i32, i32, double, i8, i32, i32, ptr, i32 }
%struct.slab_rebal_thread = type { i8, i8, ptr, ptr, %union.pthread_mutex_t, %union.pthread_cond_t, i64, ptr, i32, %struct.timespec, ptr, ptr, %struct.slab_rebalance }
%union.pthread_mutex_t = type { %struct.__pthread_mutex_s }
%struct.__pthread_mutex_s = type { i32, i32, i32, i32, i32, i16, i16, %struct.__pthread_internal_list }
%struct.__pthread_internal_list = type { ptr, ptr }
%union.pthread_cond_t = type { %struct.__pthread_cond_s }
%struct.__pthread_cond_s = type { %union.__atomic_wide_counter, %union.__atomic_wide_counter, [2 x i32], [2 x i32], i32, i32, [2 x i32] }
%union.__atomic_wide_counter = type { i64 }
%struct.timespec = type { i64, i64 }
%struct.slab_rebalance = type { ptr, ptr, ptr, i32, i32, i32, i32, i32, i32, i32, i32, i32, i32, i8, ptr }

@slab_automove_extstore = internal global %struct.slab_automove_reg_t { ptr @slab_automove_extstore_init, ptr @slab_automove_extstore_free, ptr @slab_automove_extstore_run }, align 8
@slab_automove_default = internal global %struct.slab_automove_reg_t { ptr @slab_automove_init, ptr @slab_automove_free, ptr @slab_automove_run }, align 8
@settings = external global %struct.settings, align 8
@stderr = external global ptr, align 8
@.str = private unnamed_addr constant [74 x i8] c"Can't create slab rebalancer thread: failed to allocate automover memory\0A\00", align 1
@.str.1 = private unnamed_addr constant [41 x i8] c"Can't create slab rebalancer thread: %s\0A\00", align 1
@.str.2 = private unnamed_addr constant [13 x i8] c"mc-slabmaint\00", align 1

; Function Attrs: nounwind uwtable
define dso_local ptr @start_slab_maintenance_thread(ptr noundef %0) #0 {
  %2 = alloca ptr, align 8
  %3 = alloca ptr, align 8
  %4 = alloca i32, align 4
  %5 = alloca ptr, align 8
  %6 = alloca i32, align 4
  store ptr %0, ptr %3, align 8, !tbaa !22
  call void @llvm.lifetime.start.p0(i64 4, ptr %4) #7
  call void @llvm.lifetime.start.p0(i64 8, ptr %5) #7
  %7 = call noalias ptr @calloc(i64 noundef 1, i64 noundef 248) #8
  store ptr %7, ptr %5, align 8, !tbaa !4
  %8 = load ptr, ptr %5, align 8, !tbaa !4
  %9 = icmp eq ptr %8, null
  br i1 %9, label %10, label %11

10:                                               ; preds = %1
  store ptr null, ptr %2, align 8
  store i32 1, ptr %6, align 4
  br label %63

11:                                               ; preds = %1
  %12 = load ptr, ptr %5, align 8, !tbaa !4
  %13 = getelementptr inbounds nuw %struct.slab_rebal_thread, ptr %12, i32 0, i32 4
  %14 = call i32 @pthread_mutex_init(ptr noundef %13, ptr noundef null) #7
  %15 = load ptr, ptr %5, align 8, !tbaa !4
  %16 = getelementptr inbounds nuw %struct.slab_rebal_thread, ptr %15, i32 0, i32 5
  %17 = call i32 @pthread_cond_init(ptr noundef %16, ptr noundef null) #7
  %18 = load ptr, ptr %5, align 8, !tbaa !4
  %19 = getelementptr inbounds nuw %struct.slab_rebal_thread, ptr %18, i32 0, i32 0
  store i8 1, ptr %19, align 8, !tbaa !23
  %20 = load ptr, ptr %3, align 8, !tbaa !22
  %21 = icmp ne ptr %20, null
  br i1 %21, label %22, label %28

22:                                               ; preds = %11
  %23 = load ptr, ptr %3, align 8, !tbaa !22
  %24 = load ptr, ptr %5, align 8, !tbaa !4
  %25 = getelementptr inbounds nuw %struct.slab_rebal_thread, ptr %24, i32 0, i32 2
  store ptr %23, ptr %25, align 8, !tbaa !24
  %26 = load ptr, ptr %5, align 8, !tbaa !4
  %27 = getelementptr inbounds nuw %struct.slab_rebal_thread, ptr %26, i32 0, i32 10
  store ptr @slab_automove_extstore, ptr %27, align 8, !tbaa !25
  br label %31

28:                                               ; preds = %11
  %29 = load ptr, ptr %5, align 8, !tbaa !4
  %30 = getelementptr inbounds nuw %struct.slab_rebal_thread, ptr %29, i32 0, i32 10
  store ptr @slab_automove_default, ptr %30, align 8, !tbaa !25
  br label %31

31:                                               ; preds = %28, %22
  %32 = load ptr, ptr %5, align 8, !tbaa !4
  %33 = getelementptr inbounds nuw %struct.slab_rebal_thread, ptr %32, i32 0, i32 10
  %34 = load ptr, ptr %33, align 8, !tbaa !25
  %35 = getelementptr inbounds nuw %struct.slab_automove_reg_t, ptr %34, i32 0, i32 0
  %36 = load ptr, ptr %35, align 8, !tbaa !26
  %37 = call ptr %36(ptr noundef @settings)
  %38 = load ptr, ptr %5, align 8, !tbaa !4
  %39 = getelementptr inbounds nuw %struct.slab_rebal_thread, ptr %38, i32 0, i32 11
  store ptr %37, ptr %39, align 8, !tbaa !28
  %40 = load ptr, ptr %5, align 8, !tbaa !4
  %41 = getelementptr inbounds nuw %struct.slab_rebal_thread, ptr %40, i32 0, i32 11
  %42 = load ptr, ptr %41, align 8, !tbaa !28
  %43 = icmp eq ptr %42, null
  br i1 %43, label %44, label %47

44:                                               ; preds = %31
  %45 = load ptr, ptr @stderr, align 8, !tbaa !29
  %46 = call i32 (ptr, ptr, ...) @fprintf(ptr noundef %45, ptr noundef @.str) #7
  store ptr null, ptr %2, align 8
  store i32 1, ptr %6, align 4
  br label %63

47:                                               ; preds = %31
  %48 = load ptr, ptr %5, align 8, !tbaa !4
  %49 = getelementptr inbounds nuw %struct.slab_rebal_thread, ptr %48, i32 0, i32 6
  %50 = load ptr, ptr %5, align 8, !tbaa !4
  %51 = call i32 @pthread_create(ptr noundef %49, ptr noundef null, ptr noundef @slab_rebalance_thread, ptr noundef %50) #7
  store i32 %51, ptr %4, align 4, !tbaa !9
  %52 = icmp ne i32 %51, 0
  br i1 %52, label %53, label %58

53:                                               ; preds = %47
  %54 = load ptr, ptr @stderr, align 8, !tbaa !29
  %55 = load i32, ptr %4, align 4, !tbaa !9
  %56 = call ptr @strerror(i32 noundef %55) #7
  %57 = call i32 (ptr, ptr, ...) @fprintf(ptr noundef %54, ptr noundef @.str.1, ptr noundef %56) #7
  store ptr null, ptr %2, align 8
  store i32 1, ptr %6, align 4
  br label %63

58:                                               ; preds = %47
  %59 = load ptr, ptr %5, align 8, !tbaa !4
  %60 = getelementptr inbounds nuw %struct.slab_rebal_thread, ptr %59, i32 0, i32 6
  %61 = load i64, ptr %60, align 8, !tbaa !31
  call void @thread_setname(i64 noundef %61, ptr noundef @.str.2)
  %62 = load ptr, ptr %5, align 8, !tbaa !4
  store ptr %62, ptr %2, align 8
  store i32 1, ptr %6, align 4
  br label %63

63:                                               ; preds = %58, %53, %44, %10
  call void @llvm.lifetime.end.p0(i64 8, ptr %5) #7
  call void @llvm.lifetime.end.p0(i64 4, ptr %4) #7
  %64 = load ptr, ptr %2, align 8
  ret ptr %64
}