; Function Attrs: nounwind uwtable
define dso_local noundef ptr @start_slab_maintenance_thread(ptr noundef %0) local_unnamed_addr #0 {
  %2 = tail call noalias dereferenceable_or_null(248) ptr @calloc(i64 noundef 1, i64 noundef 248) #12
  %3 = icmp eq ptr %2, null
  br i1 %3, label %29, label %4

4:                                                ; preds = %1
  %5 = getelementptr inbounds nuw i8, ptr %2, i64 24
  %6 = tail call i32 @pthread_mutex_init(ptr noundef nonnull %5, ptr noundef null) #11
  %7 = getelementptr inbounds nuw i8, ptr %2, i64 64
  %8 = tail call i32 @pthread_cond_init(ptr noundef nonnull %7, ptr noundef null) #11
  store i8 1, ptr %2, align 8, !tbaa !19
  %.not = icmp eq ptr %0, null
  br i1 %.not, label %11, label %9

9:                                                ; preds = %4
  %10 = getelementptr inbounds nuw i8, ptr %2, i64 8
  store ptr %0, ptr %10, align 8, !tbaa !20
  br label %11

11:                                               ; preds = %4, %9
  %slab_automove_extstore.sink = phi ptr [ @slab_automove_extstore, %9 ], [ @slab_automove_default, %4 ]
  %12 = getelementptr inbounds nuw i8, ptr %2, i64 152
  store ptr %slab_automove_extstore.sink, ptr %12, align 8, !tbaa !21
  %13 = load ptr, ptr %slab_automove_extstore.sink, align 8, !tbaa !22
  %14 = tail call ptr %13(ptr noundef nonnull @settings) #11
  %15 = getelementptr inbounds nuw i8, ptr %2, i64 160
  store ptr %14, ptr %15, align 8, !tbaa !24
  %16 = icmp eq ptr %14, null
  br i1 %16, label %17, label %20

17:                                               ; preds = %11
  %18 = load ptr, ptr @stderr, align 8, !tbaa !25
  %19 = tail call i64 @fwrite(ptr nonnull @.str, i64 73, i64 1, ptr %18) #13
  br label %29

20:                                               ; preds = %11
  %21 = getelementptr inbounds nuw i8, ptr %2, i64 112
  %22 = tail call i32 @pthread_create(ptr noundef nonnull %21, ptr noundef null, ptr noundef nonnull @slab_rebalance_thread, ptr noundef nonnull %2) #11
  %.not20 = icmp eq i32 %22, 0
  br i1 %.not20, label %27, label %23

23:                                               ; preds = %20
  %24 = load ptr, ptr @stderr, align 8, !tbaa !25
  %25 = tail call ptr @strerror(i32 noundef %22) #11
  %26 = tail call i32 (ptr, ptr, ...) @fprintf(ptr noundef %24, ptr noundef nonnull @.str.1, ptr noundef %25) #14
  br label %29

27:                                               ; preds = %20
  %28 = load i64, ptr %21, align 8, !tbaa !27
  tail call void @thread_setname(i64 noundef %28, ptr noundef nonnull @.str.2) #11
  br label %29

29:                                               ; preds = %1, %27, %23, %17
  %.0 = phi ptr [ null, %17 ], [ null, %23 ], [ %2, %27 ], [ null, %1 ]
  ret ptr %.0
}